target datalayout = "e-m:e-p270:32:32-p271:32:32-p272:64:64-i64:64-i128:128-f80:128-n8:16:32:64-S128"
target triple = "x86_64-pc-linux-gnu"

%class.ref_vector = type { %class.ref_vector_core }
%class.ref_vector_core = type { %class.ref_manager_wrapper, %class.ptr_vector }
%class.ref_manager_wrapper = type { ptr }
%class.ptr_vector = type { %class.vector }
%class.vector = type { ptr }
%class.rational = type { %class.mpq }
%class.mpq = type { %class.mpz, %class.mpz }
%class.mpz = type { i32, i8, ptr }
%class.ref = type { ptr }
%class.svector = type { %class.vector.0 }
%class.vector.0 = type { ptr }
%class.params_ref = type { ptr }
%class.vector.28 = type { ptr }
%class.obj_map.52 = type { %class.core_hashtable.53 }
%class.core_hashtable.53 = type <{ ptr, i32, i32, i32, [4 x i8] }>
%"class.opt::maxsmt" = type { ptr, ptr, i32, %class.scoped_ptr.304, %class.vector.28, %class.obj_map.52, %class.ref_vector, %class.rational, %class.rational, %class.ref, %class.svector, %class.params_ref }
%class.scoped_ptr.304 = type { ptr }

; Function Attrs: mustprogress uwtable
define hidden void @_ZN3opt6maxsmt13model_updatedEP5model(ptr noundef nonnull align 8 dereferenceable(168) %0, ptr noundef %1) #6 align 2 {
  %3 = alloca ptr, align 8
  %4 = alloca ptr, align 8
  store ptr %0, ptr %3, align 8, !tbaa !195
  store ptr %1, ptr %4, align 8, !tbaa !221
  %5 = load ptr, ptr %3, align 8
  %6 = getelementptr inbounds nuw %"class.opt::maxsmt", ptr %5, i32 0, i32 1
  %7 = load ptr, ptr %6, align 8, !tbaa !210
  %8 = load ptr, ptr %4, align 8, !tbaa !221
  %9 = load ptr, ptr %7, align 8, !tbaa !34
  %10 = getelementptr inbounds ptr, ptr %9, i64 16
  %11 = load ptr, ptr %10, align 8
  call void %11(ptr noundef nonnull align 8 dereferenceable(8) %7, ptr noundef %8)
  ret void
}